; Function Attrs: mustprogress uwtable
define hidden noundef zeroext i1 @_ZNK2cv11WebPDecoder14checkSignatureERKNSt7__cxx1112basic_stringIcSt11char_traitsIcESaIcEEE(ptr nonnull readnone align 8 captures(none) %0, ptr noundef nonnull readonly align 8 captures(none) dereferenceable(32) %1) unnamed_addr #3 align 2 personality ptr @__gxx_personality_v0 {
  %3 = alloca %struct.WebPBitstreamFeatures, align 4
  %4 = getelementptr inbounds nuw i8, ptr %1, i64 8
  %5 = load i64, ptr %4, align 8, !tbaa !80
  %6 = icmp ugt i64 %5, 31
  br i1 %6, label %7, label %11

7:                                                ; preds = %2
  call void @llvm.lifetime.start.p0(i64 40, ptr nonnull %3) #21
  %8 = load ptr, ptr %1, align 8, !tbaa !79
  %9 = call noundef i32 @WebPGetFeaturesInternal(ptr noundef %8, i64 noundef 32, ptr noundef nonnull %3, i32 noundef 521)
  %10 = icmp eq i32 %9, 0
  call void @llvm.lifetime.end.p0(i64 40, ptr nonnull %3) #21
  br label %11

11:                                               ; preds = %7, %2
  %.0 = phi i1 [ %10, %7 ], [ false, %2 ]
  ret i1 %.0
}